target datalayout = "e-m:e-p270:32:32-p271:32:32-p272:64:64-i64:64-i128:128-f80:128-n8:16:32:64-S128"
target triple = "x86_64-pc-linux-gnu"

%struct.mbedtls_sha3_context = type { [25 x i64], i32, i16, i16 }

; Function Attrs: alwaysinline nounwind uwtable
define internal i64 @mbedtls_get_unaligned_uint64(ptr noundef %0) #5 {
  %2 = alloca ptr, align 8
  %3 = alloca i64, align 8
  store ptr %0, ptr %2, align 8, !tbaa !3
  call void @llvm.lifetime.start.p0(i64 8, ptr %3) #7
  %4 = load ptr, ptr %2, align 8, !tbaa !3
  call void @llvm.memcpy.p0.p0.i64(ptr align 8 %3, ptr align 1 %4, i64 8, i1 false)
  %5 = load i64, ptr %3, align 8, !tbaa !19
  call void @llvm.lifetime.end.p0(i64 8, ptr %3) #7
  ret i64 %5
}

; Function Attrs: nounwind uwtable
define hidden i32 @mbedtls_sha3_update(ptr noundef %0, ptr noundef %1, i64 noundef %2) #0 {
  %4 = alloca ptr, align 8
  %5 = alloca ptr, align 8
  %6 = alloca i64, align 8
  %7 = alloca i32, align 4
  store ptr %0, ptr %4, align 8, !tbaa !3
  store ptr %1, ptr %5, align 8, !tbaa !17
  store i64 %2, ptr %6, align 8, !tbaa !19
  %8 = load i64, ptr %6, align 8, !tbaa !19
  %9 = icmp uge i64 %8, 8
  br i1 %9, label %10, label %119

10:                                               ; preds = %3
  call void @llvm.lifetime.start.p0(i64 4, ptr %7) #7
  %11 = load ptr, ptr %4, align 8, !tbaa !3
  %12 = getelementptr inbounds nuw %struct.mbedtls_sha3_context, ptr %11, i32 0, i32 1
  %13 = load i32, ptr %12, align 8, !tbaa !16
  %14 = urem i32 %13, 8
  %15 = sub i32 8, %14
  store i32 %15, ptr %7, align 4, !tbaa !9
  %16 = load i32, ptr %7, align 4, !tbaa !9
  %17 = icmp ne i32 %16, 0
  br i1 %17, label %18, label %71

18:                                               ; preds = %10
  br label %19

19:                                               ; preds = %53, %18
  %20 = load i32, ptr %7, align 4, !tbaa !9
  %21 = icmp sgt i32 %20, 0
  br i1 %21, label %22, label %56

22:                                               ; preds = %19
  br label %23

23:                                               ; preds = %22
  %24 = load ptr, ptr %5, align 8, !tbaa !17
  %25 = getelementptr inbounds nuw i8, ptr %24, i32 1
  store ptr %25, ptr %5, align 8, !tbaa !17
  %26 = load i8, ptr %24, align 1, !tbaa !8
  %27 = zext i8 %26 to i64
  %28 = load ptr, ptr %4, align 8, !tbaa !3
  %29 = getelementptr inbounds nuw %struct.mbedtls_sha3_context, ptr %28, i32 0, i32 1
  %30 = load i32, ptr %29, align 8, !tbaa !16
  %31 = and i32 %30, 7
  %32 = shl i32 %31, 3
  %33 = zext i32 %32 to i64
  %34 = shl i64 %27, %33
  %35 = load ptr, ptr %4, align 8, !tbaa !3
  %36 = getelementptr inbounds nuw %struct.mbedtls_sha3_context, ptr %35, i32 0, i32 0
  %37 = load ptr, ptr %4, align 8, !tbaa !3
  %38 = getelementptr inbounds nuw %struct.mbedtls_sha3_context, ptr %37, i32 0, i32 1
  %39 = load i32, ptr %38, align 8, !tbaa !16
  %40 = lshr i32 %39, 3
  %41 = zext i32 %40 to i64
  %42 = getelementptr inbounds nuw [25 x i64], ptr %36, i64 0, i64 %41
  %43 = load i64, ptr %42, align 8, !tbaa !19
  %44 = xor i64 %43, %34
  store i64 %44, ptr %42, align 8, !tbaa !19
  br label %45

45:                                               ; preds = %23
  br label %46

46:                                               ; preds = %45
  %47 = load i64, ptr %6, align 8, !tbaa !19
  %48 = add i64 %47, -1
  store i64 %48, ptr %6, align 8, !tbaa !19
  %49 = load ptr, ptr %4, align 8, !tbaa !3
  %50 = getelementptr inbounds nuw %struct.mbedtls_sha3_context, ptr %49, i32 0, i32 1
  %51 = load i32, ptr %50, align 8, !tbaa !16
  %52 = add i32 %51, 1
  store i32 %52, ptr %50, align 8, !tbaa !16
  br label %53

53:                                               ; preds = %46
  %54 = load i32, ptr %7, align 4, !tbaa !9
  %55 = add nsw i32 %54, -1
  store i32 %55, ptr %7, align 4, !tbaa !9
  br label %19, !llvm.loop !21

56:                                               ; preds = %19
  %57 = load ptr, ptr %4, align 8, !tbaa !3
  %58 = getelementptr inbounds nuw %struct.mbedtls_sha3_context, ptr %57, i32 0, i32 1
  %59 = load i32, ptr %58, align 8, !tbaa !16
  %60 = load ptr, ptr %4, align 8, !tbaa !3
  %61 = getelementptr inbounds nuw %struct.mbedtls_sha3_context, ptr %60, i32 0, i32 3
  %62 = load i16, ptr %61, align 2, !tbaa !15
  %63 = zext i16 %62 to i32
  %64 = urem i32 %59, %63
  %65 = load ptr, ptr %4, align 8, !tbaa !3
  %66 = getelementptr inbounds nuw %struct.mbedtls_sha3_context, ptr %65, i32 0, i32 1
  store i32 %64, ptr %66, align 8, !tbaa !16
  %67 = icmp eq i32 %64, 0
  br i1 %67, label %68, label %70

68:                                               ; preds = %56
  %69 = load ptr, ptr %4, align 8, !tbaa !3
  call void @keccak_f1600(ptr noundef %69)
  br label %70

70:                                               ; preds = %68, %56
  br label %71

71:                                               ; preds = %70, %10
  br label %72

72:                                               ; preds = %117, %71
  %73 = load i64, ptr %6, align 8, !tbaa !19
  %74 = icmp uge i64 %73, 8
  br i1 %74, label %75, label %118

75:                                               ; preds = %72
  br label %76

76:                                               ; preds = %75
  %77 = load ptr, ptr %5, align 8, !tbaa !17
  %78 = getelementptr inbounds i8, ptr %77, i64 0
  %79 = call i64 @mbedtls_get_unaligned_uint64(ptr noundef %78)
  %80 = load ptr, ptr %4, align 8, !tbaa !3
  %81 = getelementptr inbounds nuw %struct.mbedtls_sha3_context, ptr %80, i32 0, i32 1
  %82 = load i32, ptr %81, align 8, !tbaa !16
  %83 = and i32 %82, 7
  %84 = shl i32 %83, 3
  %85 = zext i32 %84 to i64
  %86 = shl i64 %79, %85
  %87 = load ptr, ptr %4, align 8, !tbaa !3
  %88 = getelementptr inbounds nuw %struct.mbedtls_sha3_context, ptr %87, i32 0, i32 0
  %89 = load ptr, ptr %4, align 8, !tbaa !3
  %90 = getelementptr inbounds nuw %struct.mbedtls_sha3_context, ptr %89, i32 0, i32 1
  %91 = load i32, ptr %90, align 8, !tbaa !16
  %92 = lshr i32 %91, 3
  %93 = zext i32 %92 to i64
  %94 = getelementptr inbounds nuw [25 x i64], ptr %88, i64 0, i64 %93
  %95 = load i64, ptr %94, align 8, !tbaa !19
  %96 = xor i64 %95, %86
  store i64 %96, ptr %94, align 8, !tbaa !19
  br label %97

97:                                               ; preds = %76
  br label %98

98:                                               ; preds = %97
  %99 = load ptr, ptr %5, align 8, !tbaa !17
  %100 = getelementptr inbounds i8, ptr %99, i64 8
  store ptr %100, ptr %5, align 8, !tbaa !17
  %101 = load i64, ptr %6, align 8, !tbaa !19
  %102 = sub i64 %101, 8
  store i64 %102, ptr %6, align 8, !tbaa !19
  %103 = load ptr, ptr %4, align 8, !tbaa !3
  %104 = getelementptr inbounds nuw %struct.mbedtls_sha3_context, ptr %103, i32 0, i32 1
  %105 = load i32, ptr %104, align 8, !tbaa !16
  %106 = add i32 %105, 8
  %107 = load ptr, ptr %4, align 8, !tbaa !3
  %108 = getelementptr inbounds nuw %struct.mbedtls_sha3_context, ptr %107, i32 0, i32 3
  %109 = load i16, ptr %108, align 2, !tbaa !15
  %110 = zext i16 %109 to i32
  %111 = urem i32 %106, %110
  %112 = load ptr, ptr %4, align 8, !tbaa !3
  %113 = getelementptr inbounds nuw %struct.mbedtls_sha3_context, ptr %112, i32 0, i32 1
  store i32 %111, ptr %113, align 8, !tbaa !16
  %114 = icmp eq i32 %111, 0
  br i1 %114, label %115, label %117

115:                                              ; preds = %98
  %116 = load ptr, ptr %4, align 8, !tbaa !3
  call void @keccak_f1600(ptr noundef %116)
  br label %117

117:                                              ; preds = %115, %98
  br label %72, !llvm.loop !23

118:                                              ; preds = %72
  call void @llvm.lifetime.end.p0(i64 4, ptr %7) #7
  br label %119

119:                                              ; preds = %118, %3
  br label %120

120:                                              ; preds = %162, %119
  %121 = load i64, ptr %6, align 8, !tbaa !19
  %122 = add i64 %121, -1
  store i64 %122, ptr %6, align 8, !tbaa !19
  %123 = icmp ugt i64 %121, 0
  br i1 %123, label %124, label %163

124:                                              ; preds = %120
  br label %125

125:                                              ; preds = %124
  %126 = load ptr, ptr %5, align 8, !tbaa !17
  %127 = getelementptr inbounds nuw i8, ptr %126, i32 1
  store ptr %127, ptr %5, align 8, !tbaa !17
  %128 = load i8, ptr %126, align 1, !tbaa !8
  %129 = zext i8 %128 to i64
  %130 = load ptr, ptr %4, align 8, !tbaa !3
  %131 = getelementptr inbounds nuw %struct.mbedtls_sha3_context, ptr %130, i32 0, i32 1
  %132 = load i32, ptr %131, align 8, !tbaa !16
  %133 = and i32 %132, 7
  %134 = shl i32 %133, 3
  %135 = zext i32 %134 to i64
  %136 = shl i64 %129, %135
  %137 = load ptr, ptr %4, align 8, !tbaa !3
  %138 = getelementptr inbounds nuw %struct.mbedtls_sha3_context, ptr %137, i32 0, i32 0
  %139 = load ptr, ptr %4, align 8, !tbaa !3
  %140 = getelementptr inbounds nuw %struct.mbedtls_sha3_context, ptr %139, i32 0, i32 1
  %141 = load i32, ptr %140, align 8, !tbaa !16
  %142 = lshr i32 %141, 3
  %143 = zext i32 %142 to i64
  %144 = getelementptr inbounds nuw [25 x i64], ptr %138, i64 0, i64 %143
  %145 = load i64, ptr %144, align 8, !tbaa !19
  %146 = xor i64 %145, %136
  store i64 %146, ptr %144, align 8, !tbaa !19
  br label %147

147:                                              ; preds = %125
  %148 = load ptr, ptr %4, align 8, !tbaa !3
  %149 = getelementptr inbounds nuw %struct.mbedtls_sha3_context, ptr %148, i32 0, i32 1
  %150 = load i32, ptr %149, align 8, !tbaa !16
  %151 = add i32 %150, 1
  %152 = load ptr, ptr %4, align 8, !tbaa !3
  %153 = getelementptr inbounds nuw %struct.mbedtls_sha3_context, ptr %152, i32 0, i32 3
  %154 = load i16, ptr %153, align 2, !tbaa !15
  %155 = zext i16 %154 to i32
  %156 = urem i32 %151, %155
  %157 = load ptr, ptr %4, align 8, !tbaa !3
  %158 = getelementptr inbounds nuw %struct.mbedtls_sha3_context, ptr %157, i32 0, i32 1
  store i32 %156, ptr %158, align 8, !tbaa !16
  %159 = icmp eq i32 %156, 0
  br i1 %159, label %160, label %162

160:                                              ; preds = %147
  %161 = load ptr, ptr %4, align 8, !tbaa !3
  call void @keccak_f1600(ptr noundef %161)
  br label %162

162:                                              ; preds = %160, %147
  br label %120, !llvm.loop !24

163:                                              ; preds = %120
  ret i32 0
}