; Function Attrs: nofree norecurse nosync nounwind memory(argmem: readwrite) uwtable
define hidden noundef i32 @mbedtls_sha3_update(ptr noundef %0, ptr noundef readonly captures(none) %1, i64 noundef %2) local_unnamed_addr #6 {
  %4 = icmp ugt i64 %2, 7
  br i1 %4, label %5, label %.loopexit

5:                                                ; preds = %3
  %6 = getelementptr inbounds nuw i8, ptr %0, i64 200
  %7 = load i32, ptr %6, align 8, !tbaa !14
  %8 = and i32 %7, 7
  %9 = sub nuw nsw i32 8, %8
  br label %10

10:                                               ; preds = %5, %10
  %.044 = phi i32 [ %9, %5 ], [ %26, %10 ]
  %.243 = phi i64 [ %2, %5 ], [ %24, %10 ]
  %.23742 = phi ptr [ %1, %5 ], [ %12, %10 ]
  %11 = phi i32 [ %7, %5 ], [ %25, %10 ]
  %12 = getelementptr inbounds nuw i8, ptr %.23742, i64 1
  %13 = load i8, ptr %.23742, align 1, !tbaa !4
  %14 = zext i8 %13 to i64
  %15 = shl i32 %11, 3
  %16 = and i32 %15, 56
  %17 = zext nneg i32 %16 to i64
  %18 = shl nuw i64 %14, %17
  %19 = lshr i32 %11, 3
  %20 = zext nneg i32 %19 to i64
  %21 = getelementptr inbounds nuw [25 x i64], ptr %0, i64 0, i64 %20
  %22 = load i64, ptr %21, align 8, !tbaa !15
  %23 = xor i64 %18, %22
  store i64 %23, ptr %21, align 8, !tbaa !15
  %24 = add i64 %.243, -1
  %25 = add i32 %11, 1
  store i32 %25, ptr %6, align 8, !tbaa !14
  %26 = add nsw i32 %.044, -1
  %27 = icmp samesign ugt i32 %.044, 1
  br i1 %27, label %10, label %28, !llvm.loop !17

28:                                               ; preds = %10
  %29 = getelementptr inbounds nuw i8, ptr %0, i64 206
  %30 = load i16, ptr %29, align 2, !tbaa !13
  %31 = zext i16 %30 to i32
  %32 = urem i32 %25, %31
  store i32 %32, ptr %6, align 8, !tbaa !14
  %33 = icmp eq i32 %32, 0
  br i1 %33, label %34, label %35

34:                                               ; preds = %28
  tail call fastcc void @keccak_f1600(ptr noundef nonnull %0)
  br label %35

35:                                               ; preds = %28, %34
  %36 = icmp ugt i64 %24, 7
  br i1 %36, label %.lr.ph, label %.loopexit

.lr.ph:                                           ; preds = %35, %55
  %.346 = phi i64 [ %48, %55 ], [ %24, %35 ]
  %.33845 = phi ptr [ %47, %55 ], [ %12, %35 ]
  %.0.copyload.i = load i64, ptr %.33845, align 1
  %37 = load i32, ptr %6, align 8, !tbaa !14
  %38 = shl i32 %37, 3
  %39 = and i32 %38, 56
  %40 = zext nneg i32 %39 to i64
  %41 = shl i64 %.0.copyload.i, %40
  %42 = lshr i32 %37, 3
  %43 = zext nneg i32 %42 to i64
  %44 = getelementptr inbounds nuw [25 x i64], ptr %0, i64 0, i64 %43
  %45 = load i64, ptr %44, align 8, !tbaa !15
  %46 = xor i64 %41, %45
  store i64 %46, ptr %44, align 8, !tbaa !15
  %47 = getelementptr inbounds nuw i8, ptr %.33845, i64 8
  %48 = add i64 %.346, -8
  %49 = add i32 %37, 8
  %50 = load i16, ptr %29, align 2, !tbaa !13
  %51 = zext i16 %50 to i32
  %52 = urem i32 %49, %51
  store i32 %52, ptr %6, align 8, !tbaa !14
  %53 = icmp eq i32 %52, 0
  br i1 %53, label %54, label %55

54:                                               ; preds = %.lr.ph
  tail call fastcc void @keccak_f1600(ptr noundef nonnull %0)
  br label %55

55:                                               ; preds = %54, %.lr.ph
  %56 = icmp ugt i64 %48, 7
  br i1 %56, label %.lr.ph, label %.loopexit, !llvm.loop !19

.loopexit:                                        ; preds = %55, %35, %3
  %.035 = phi ptr [ %1, %3 ], [ %12, %35 ], [ %47, %55 ]
  %.034 = phi i64 [ %2, %3 ], [ %24, %35 ], [ %48, %55 ]
  %.not48 = icmp eq i64 %.034, 0
  br i1 %.not48, label %._crit_edge, label %.lr.ph50

.lr.ph50:                                         ; preds = %.loopexit
  %57 = getelementptr inbounds nuw i8, ptr %0, i64 200
  %58 = getelementptr inbounds nuw i8, ptr %0, i64 206
  br label %59

59:                                               ; preds = %.lr.ph50, %80
  %.in = phi i64 [ %.034, %.lr.ph50 ], [ %60, %80 ]
  %.43949 = phi ptr [ %.035, %.lr.ph50 ], [ %61, %80 ]
  %60 = add i64 %.in, -1
  %61 = getelementptr inbounds nuw i8, ptr %.43949, i64 1
  %62 = load i8, ptr %.43949, align 1, !tbaa !4
  %63 = zext i8 %62 to i64
  %64 = load i32, ptr %57, align 8, !tbaa !14
  %65 = shl i32 %64, 3
  %66 = and i32 %65, 56
  %67 = zext nneg i32 %66 to i64
  %68 = shl nuw i64 %63, %67
  %69 = lshr i32 %64, 3
  %70 = zext nneg i32 %69 to i64
  %71 = getelementptr inbounds nuw [25 x i64], ptr %0, i64 0, i64 %70
  %72 = load i64, ptr %71, align 8, !tbaa !15
  %73 = xor i64 %68, %72
  store i64 %73, ptr %71, align 8, !tbaa !15
  %74 = add i32 %64, 1
  %75 = load i16, ptr %58, align 2, !tbaa !13
  %76 = zext i16 %75 to i32
  %77 = urem i32 %74, %76
  store i32 %77, ptr %57, align 8, !tbaa !14
  %78 = icmp eq i32 %77, 0
  br i1 %78, label %79, label %80

79:                                               ; preds = %59
  tail call fastcc void @keccak_f1600(ptr noundef nonnull %0)
  br label %80

80:                                               ; preds = %79, %59
  %.not = icmp eq i64 %60, 0
  br i1 %.not, label %._crit_edge, label %59, !llvm.loop !20

._crit_edge:                                      ; preds = %80, %.loopexit
  ret i32 0
}